; Function Attrs: mustprogress uwtable
define internal void @_ZN4LuauL8fnVisitVIZNS_5EqSat12canonicalizeIZNS1_6EGraphINS1_8LanguageIJNS_19EqSatSimplification4TNilENS5_8TBooleanENS5_7TNumberENS5_7TStringENS5_7TThreadENS5_12TTopFunctionENS5_9TTopTableENS5_9TTopClassENS5_7TBufferENS5_7TOpaqueENS5_8SBooleanENS5_7SStringENS5_9TFunctionENS5_6TTableENS5_14TImportedTableENS5_6TClassENS5_4TAnyENS5_6TErrorENS5_8TUnknownENS5_6TNeverENS5_5UnionENS5_12IntersectionENS5_8NegationENS5_8TTypeFunENS5_7InvalidENS5_9TNoRefineENS5_6TBoundEEEENS5_8SimplifyEE12canonicalizeERSX_EUlNS1_2IdEE_JS6_S7_S8_S9_SA_SB_SC_SD_SE_SF_SG_SH_SI_SJ_SK_SL_SM_SN_SO_SP_SQ_SR_SS_ST_SU_SV_SW_EEEvRNS4_IJDpT0_EEEOT_EUlS18_E_SS_EEvRS17_PNSt11conditionalIXsr3stdE10is_const_vIT0_EEKvvE4typeE(ptr noundef nonnull readonly align 8 captures(none) dereferenceable(8) %0, ptr noundef captures(none) %1) #5 {
  %3 = load ptr, ptr %0, align 8, !tbaa !1016
  %.sroa.0.0.copyload.i.i = load i32, ptr %1, align 4, !tbaa !4
  %4 = load ptr, ptr %3, align 8, !tbaa !71
  %5 = getelementptr inbounds nuw i8, ptr %4, i64 8
  %6 = tail call i32 @_ZNK4Luau5EqSat9UnionFind4findENS0_2IdE(ptr noundef nonnull align 8 dereferenceable(48) %5, i32 %.sroa.0.0.copyload.i.i)
  store i32 %6, ptr %1, align 4, !tbaa !4
  ret void
}